; ModuleID = 'source-C-CXX/6/36.c'
source_filename = "source-C-CXX/6/36.c"
target datalayout = "e-m:e-p270:32:32-p271:32:32-p272:64:64-i64:64-f80:128-n8:16:32:64-S128"
target triple = "x86_64-pc-linux-gnu"

@.str = private unnamed_addr constant [3 x i8] c"%s\00", align 1

; Function Attrs: nofree nounwind sspstrong uwtable
define dso_local i32 @main() local_unnamed_addr #0 {
  %1 = alloca [256 x i8], align 16
  %2 = alloca [256 x i8], align 16
  %3 = alloca [256 x i8], align 16
  %4 = getelementptr inbounds [256 x i8], [256 x i8]* %3, i64 0, i64 0
  %5 = getelementptr inbounds [256 x i8], [256 x i8]* %1, i64 0, i64 0
  call void @llvm.lifetime.start.p0i8(i64 256, i8* nonnull %5) #6
  %6 = getelementptr inbounds [256 x i8], [256 x i8]* %2, i64 0, i64 0
  call void @llvm.lifetime.start.p0i8(i64 256, i8* nonnull %6) #6
  %7 = getelementptr inbounds [256 x i8], [256 x i8]* %3, i64 0, i64 0
  call void @llvm.lifetime.start.p0i8(i64 256, i8* nonnull %7) #6
  %8 = call i32 (i8*, ...) @__isoc99_scanf(i8* getelementptr inbounds ([3 x i8], [3 x i8]* @.str, i64 0, i64 0), i8* nonnull %5)
  %9 = call i32 (i8*, ...) @__isoc99_scanf(i8* getelementptr inbounds ([3 x i8], [3 x i8]* @.str, i64 0, i64 0), i8* nonnull %6)
  %10 = call i32 (i8*, ...) @__isoc99_scanf(i8* getelementptr inbounds ([3 x i8], [3 x i8]* @.str, i64 0, i64 0), i8* nonnull %7)
  %11 = call i64 @strlen(i8* noundef nonnull %5) #7
  %12 = trunc i64 %11 to i32
  %13 = call i64 @strlen(i8* noundef nonnull %6) #7
  %14 = trunc i64 %13 to i32
  %15 = icmp slt i32 %12, %14
  br i1 %15, label %81, label %16

16:                                               ; preds = %0
  %17 = icmp sgt i32 %14, 0
  br i1 %17, label %18, label %91

18:                                               ; preds = %16
  %19 = add i32 %12, 1
  %20 = sub i32 %19, %14
  %21 = zext i32 %20 to i64
  %22 = and i64 %13, 4294967295
  %23 = icmp ult i64 %22, 8
  %24 = and i64 %13, 7
  %25 = sub nsw i64 %22, %24
  %26 = icmp eq i64 %24, 0
  br label %27

27:                                               ; preds = %18, %60
  %28 = phi i64 [ 0, %18 ], [ %61, %60 ]
  br i1 %23, label %57, label %29

29:                                               ; preds = %27, %29
  %30 = phi i64 [ %52, %29 ], [ 0, %27 ]
  %31 = phi <4 x i32> [ %50, %29 ], [ zeroinitializer, %27 ]
  %32 = phi <4 x i32> [ %51, %29 ], [ zeroinitializer, %27 ]
  %33 = add nuw nsw i64 %30, %28
  %34 = getelementptr inbounds [256 x i8], [256 x i8]* %1, i64 0, i64 %33
  %35 = bitcast i8* %34 to <4 x i8>*
  %36 = load <4 x i8>, <4 x i8>* %35, align 1, !tbaa !5
  %37 = getelementptr inbounds i8, i8* %34, i64 4
  %38 = bitcast i8* %37 to <4 x i8>*
  %39 = load <4 x i8>, <4 x i8>* %38, align 1, !tbaa !5
  %40 = getelementptr inbounds [256 x i8], [256 x i8]* %2, i64 0, i64 %30
  %41 = bitcast i8* %40 to <4 x i8>*
  %42 = load <4 x i8>, <4 x i8>* %41, align 8, !tbaa !5
  %43 = getelementptr inbounds i8, i8* %40, i64 4
  %44 = bitcast i8* %43 to <4 x i8>*
  %45 = load <4 x i8>, <4 x i8>* %44, align 4, !tbaa !5
  %46 = icmp eq <4 x i8> %36, %42
  %47 = icmp eq <4 x i8> %39, %45
  %48 = zext <4 x i1> %46 to <4 x i32>
  %49 = zext <4 x i1> %47 to <4 x i32>
  %50 = add <4 x i32> %31, %48
  %51 = add <4 x i32> %32, %49
  %52 = add nuw i64 %30, 8
  %53 = icmp eq i64 %52, %25
  br i1 %53, label %54, label %29, !llvm.loop !8

54:                                               ; preds = %29
  %55 = add <4 x i32> %51, %50
  %56 = call i32 @llvm.vector.reduce.add.v4i32(<4 x i32> %55)
  br i1 %26, label %76, label %57

57:                                               ; preds = %27, %54
  %58 = phi i64 [ 0, %27 ], [ %25, %54 ]
  %59 = phi i32 [ 0, %27 ], [ %56, %54 ]
  br label %63

60:                                               ; preds = %76
  %61 = add nuw nsw i64 %28, 1
  %62 = icmp eq i64 %61, %21
  br i1 %62, label %81, label %27, !llvm.loop !11

63:                                               ; preds = %57, %63
  %64 = phi i64 [ %74, %63 ], [ %58, %57 ]
  %65 = phi i32 [ %73, %63 ], [ %59, %57 ]
  %66 = add nuw nsw i64 %64, %28
  %67 = getelementptr inbounds [256 x i8], [256 x i8]* %1, i64 0, i64 %66
  %68 = load i8, i8* %67, align 1, !tbaa !5
  %69 = getelementptr inbounds [256 x i8], [256 x i8]* %2, i64 0, i64 %64
  %70 = load i8, i8* %69, align 1, !tbaa !5
  %71 = icmp eq i8 %68, %70
  %72 = zext i1 %71 to i32
  %73 = add nuw nsw i32 %65, %72
  %74 = add nuw nsw i64 %64, 1
  %75 = icmp eq i64 %74, %22
  br i1 %75, label %76, label %63, !llvm.loop !12

76:                                               ; preds = %63, %54
  %77 = phi i32 [ %56, %54 ], [ %73, %63 ]
  %78 = icmp eq i32 %77, %14
  br i1 %78, label %79, label %60

79:                                               ; preds = %76
  %80 = trunc i64 %28 to i32
  br label %81

81:                                               ; preds = %60, %79, %0
  %82 = phi i32 [ 0, %0 ], [ %80, %79 ], [ %20, %60 ]
  %83 = phi i32 [ 0, %0 ], [ %14, %79 ], [ 0, %60 ]
  %84 = icmp eq i32 %83, %14
  %85 = icmp sgt i32 %14, 0
  %86 = and i1 %84, %85
  br i1 %86, label %87, label %91

87:                                               ; preds = %81
  %88 = zext i32 %82 to i64
  %89 = getelementptr [256 x i8], [256 x i8]* %1, i64 0, i64 %88
  %90 = and i64 %13, 4294967295
  call void @llvm.memcpy.p0i8.p0i8.i64(i8* align 1 %89, i8* nonnull align 16 %4, i64 %90, i1 false)
  br label %91

91:                                               ; preds = %16, %87, %81
  %92 = call i32 (i8*, ...) @printf(i8* nonnull dereferenceable(1) getelementptr inbounds ([3 x i8], [3 x i8]* @.str, i64 0, i64 0), i8* nonnull %5)
  call void @llvm.lifetime.end.p0i8(i64 256, i8* nonnull %7) #6
  call void @llvm.lifetime.end.p0i8(i64 256, i8* nonnull %6) #6
  call void @llvm.lifetime.end.p0i8(i64 256, i8* nonnull %5) #6
  ret i32 0
}

; Function Attrs: argmemonly mustprogress nofree nosync nounwind willreturn
declare void @llvm.lifetime.start.p0i8(i64 immarg, i8* nocapture) #1

; Function Attrs: nofree nounwind
declare noundef i32 @__isoc99_scanf(i8* nocapture noundef readonly, ...) local_unnamed_addr #2

; Function Attrs: argmemonly mustprogress nofree nounwind readonly willreturn
declare i64 @strlen(i8* nocapture) local_unnamed_addr #3

; Function Attrs: nofree nounwind
declare noundef i32 @printf(i8* nocapture noundef readonly, ...) local_unnamed_addr #2

; Function Attrs: argmemonly mustprogress nofree nosync nounwind willreturn
declare void @llvm.lifetime.end.p0i8(i64 immarg, i8* nocapture) #1

; Function Attrs: argmemonly nofree nounwind willreturn
declare void @llvm.memcpy.p0i8.p0i8.i64(i8* noalias nocapture writeonly, i8* noalias nocapture readonly, i64, i1 immarg) #4

; Function Attrs: nofree nosync nounwind readnone willreturn
declare i32 @llvm.vector.reduce.add.v4i32(<4 x i32>) #5


!llvm.module.flags = !{!0, !1, !2, !3}
!llvm.ident = !{!4}

!0 = !{i32 1, !"wchar_size", i32 4}
!1 = !{i32 7, !"PIC Level", i32 2}
!2 = !{i32 7, !"PIE Level", i32 2}
!3 = !{i32 7, !"uwtable", i32 1}
!4 = !{!"clang version 13.0.0"}
!5 = !{!6, !6, i64 0}
!6 = !{!"omnipotent char", !7, i64 0}
!7 = !{!"Simple C/C++ TBAA"}
!8 = distinct !{!8, !9, !10}
!9 = !{!"llvm.loop.mustprogress"}
!10 = !{!"llvm.loop.isvectorized", i32 1}
!11 = distinct !{!11, !9}
!12 = distinct !{!12, !9, !13, !10}
!13 = !{!"llvm.loop.unroll.runtime.disable"}
